target datalayout = "e-m:e-p270:32:32-p271:32:32-p272:64:64-i64:64-i128:128-f80:128-n8:16:32:64-S128"
target triple = "x86_64-pc-linux-gnu"

%"class.facebook::yoga::Node" = type { i8, ptr, ptr, ptr, ptr, %"class.facebook::yoga::Style", %"struct.facebook::yoga::LayoutResults", i64, i64, ptr, %"class.std::vector", ptr, %"struct.std::array.8" }
%"class.facebook::yoga::Style" = type { i32, %"class.facebook::yoga::StyleValueHandle", %"class.facebook::yoga::StyleValueHandle", %"class.facebook::yoga::StyleValueHandle", %"class.facebook::yoga::StyleValueHandle", %"struct.std::array", %"struct.std::array", %"struct.std::array", %"struct.std::array", %"struct.std::array.0", %"struct.std::array.1", %"struct.std::array.1", %"struct.std::array.1", %"class.facebook::yoga::StyleValueHandle", %"class.facebook::yoga::StyleValuePool" }
%"struct.std::array" = type { [9 x %"class.facebook::yoga::StyleValueHandle"] }
%"struct.std::array.0" = type { [3 x %"class.facebook::yoga::StyleValueHandle"] }
%"struct.std::array.1" = type { [2 x %"class.facebook::yoga::StyleValueHandle"] }
%"class.facebook::yoga::StyleValueHandle" = type { i16 }
%"class.facebook::yoga::StyleValuePool" = type { %"class.facebook::yoga::SmallValueBuffer" }
%"class.facebook::yoga::SmallValueBuffer" = type { i16, %"struct.std::array.2", %"class.std::bitset", %"class.std::unique_ptr" }
%"struct.std::array.2" = type { [4 x i32] }
%"class.std::bitset" = type { %"struct.std::_Base_bitset" }
%"struct.std::_Base_bitset" = type { i64 }
%"class.std::unique_ptr" = type { %"struct.std::__uniq_ptr_data" }
%"struct.std::__uniq_ptr_data" = type { %"class.std::__uniq_ptr_impl" }
%"class.std::__uniq_ptr_impl" = type { %"class.std::tuple" }
%"class.std::tuple" = type { %"struct.std::_Tuple_impl" }
%"struct.std::_Tuple_impl" = type { %"struct.std::_Head_base.4" }
%"struct.std::_Head_base.4" = type { ptr }
%"struct.facebook::yoga::LayoutResults" = type { i32, %"struct.facebook::yoga::FloatOptional", i32, i32, i8, i32, %"struct.std::array.5", %"struct.facebook::yoga::CachedMeasurement", i8, %"struct.std::array.6", %"struct.std::array.6", %"struct.std::array.7", %"struct.std::array.7", %"struct.std::array.7", %"struct.std::array.7" }
%"struct.facebook::yoga::FloatOptional" = type { float }
%"struct.std::array.5" = type { [8 x %"struct.facebook::yoga::CachedMeasurement"] }
%"struct.facebook::yoga::CachedMeasurement" = type { float, float, i32, i32, float, float }
%"struct.std::array.6" = type { [2 x float] }
%"struct.std::array.7" = type { [4 x float] }
%"class.std::vector" = type { %"struct.std::_Vector_base" }
%"struct.std::_Vector_base" = type { %"struct.std::_Vector_base<facebook::yoga::Node *, std::allocator<facebook::yoga::Node *>>::_Vector_impl" }
%"struct.std::_Vector_base<facebook::yoga::Node *, std::allocator<facebook::yoga::Node *>>::_Vector_impl" = type { %"struct.std::_Vector_base<facebook::yoga::Node *, std::allocator<facebook::yoga::Node *>>::_Vector_impl_data" }
%"struct.std::_Vector_base<facebook::yoga::Node *, std::allocator<facebook::yoga::Node *>>::_Vector_impl_data" = type { ptr, ptr, ptr }
%"struct.std::array.8" = type { [2 x %"class.facebook::yoga::StyleSizeLength"] }
%"class.facebook::yoga::StyleSizeLength" = type <{ %"struct.facebook::yoga::FloatOptional", i8, [3 x i8] }>

; Function Attrs: mustprogress nounwind uwtable
define linkonce_odr hidden void @_ZN8facebook4yoga13LayoutResults12setDirectionENS0_9DirectionE(ptr noundef nonnull align 4 dereferenceable(324) %0, i8 noundef zeroext %1) #7 comdat align 2 {
  %3 = alloca ptr, align 8
  %4 = alloca i8, align 1
  store ptr %0, ptr %3, align 8, !tbaa !68
  store i8 %1, ptr %4, align 1, !tbaa !88
  %5 = load ptr, ptr %3, align 8
  %6 = load i8, ptr %4, align 1, !tbaa !88
  %7 = getelementptr inbounds nuw %"struct.facebook::yoga::LayoutResults", ptr %5, i32 0, i32 8
  %8 = load i8, ptr %7, align 4
  %9 = and i8 %6, 3
  %10 = and i8 %8, -4
  %11 = or i8 %10, %9
  store i8 %11, ptr %7, align 4
  ret void
}

; Function Attrs: mustprogress uwtable
define void @_ZN8facebook4yoga4Node18setLayoutDirectionENS0_9DirectionE(ptr noundef nonnull align 8 dereferenceable(584) %0, i8 noundef zeroext %1) #4 align 2 {
  %3 = alloca ptr, align 8
  %4 = alloca i8, align 1
  store ptr %0, ptr %3, align 8, !tbaa !4
  store i8 %1, ptr %4, align 1, !tbaa !88
  %5 = load ptr, ptr %3, align 8
  %6 = getelementptr inbounds nuw %"class.facebook::yoga::Node", ptr %5, i32 0, i32 6
  %7 = load i8, ptr %4, align 1, !tbaa !88
  call void @_ZN8facebook4yoga13LayoutResults12setDirectionENS0_9DirectionE(ptr noundef nonnull align 4 dereferenceable(324) %6, i8 noundef zeroext %7)
  ret void
}